target datalayout = "e-m:e-p270:32:32-p271:32:32-p272:64:64-i64:64-i128:128-f80:128-n8:16:32:64-S128"
target triple = "x86_64-pc-linux-gnu"

%struct.mbedtls_cipher_info_t = type { ptr, i32 }
%struct.mbedtls_cipher_base_t = type { i32, ptr, ptr, ptr, ptr, ptr, ptr, ptr, ptr, ptr, ptr, ptr }
%struct.mbedtls_cipher_context_t = type { ptr, i32, i32, ptr, ptr, [16 x i8], i64, [16 x i8], i64, ptr, ptr }

@mbedtls_cipher_base_lookup_table = external global [0 x ptr], align 8

; Function Attrs: inlinehint nounwind uwtable
define internal ptr @mbedtls_cipher_get_base(ptr noundef %0) #3 {
  %2 = alloca ptr, align 8
  store ptr %0, ptr %2, align 8, !tbaa !26
  %3 = load ptr, ptr %2, align 8, !tbaa !26
  %4 = getelementptr inbounds nuw %struct.mbedtls_cipher_info_t, ptr %3, i32 0, i32 1
  %5 = load i32, ptr %4, align 8
  %6 = lshr i32 %5, 26
  %7 = and i32 %6, 31
  %8 = zext i32 %7 to i64
  %9 = getelementptr inbounds nuw [0 x ptr], ptr @mbedtls_cipher_base_lookup_table, i64 0, i64 %8
  %10 = load ptr, ptr %9, align 8, !tbaa !27
  ret ptr %10
}

; Function Attrs: inlinehint nounwind uwtable
define internal i32 @mbedtls_cipher_get_block_size(ptr noundef %0) #3 {
  %2 = alloca i32, align 4
  %3 = alloca ptr, align 8
  store ptr %0, ptr %3, align 8, !tbaa !29
  %4 = load ptr, ptr %3, align 8, !tbaa !29
  %5 = getelementptr inbounds nuw %struct.mbedtls_cipher_context_t, ptr %4, i32 0, i32 0
  %6 = load ptr, ptr %5, align 8, !tbaa !36
  %7 = icmp eq ptr %6, null
  br i1 %7, label %8, label %9

8:                                                ; preds = %1
  store i32 0, ptr %2, align 4
  br label %16

9:                                                ; preds = %1
  %10 = load ptr, ptr %3, align 8, !tbaa !29
  %11 = getelementptr inbounds nuw %struct.mbedtls_cipher_context_t, ptr %10, i32 0, i32 0
  %12 = load ptr, ptr %11, align 8, !tbaa !36
  %13 = getelementptr inbounds nuw %struct.mbedtls_cipher_info_t, ptr %12, i32 0, i32 1
  %14 = load i32, ptr %13, align 8
  %15 = and i32 %14, 31
  store i32 %15, ptr %2, align 4
  br label %16

16:                                               ; preds = %9, %8
  %17 = load i32, ptr %2, align 4
  ret i32 %17
}

; Function Attrs: inlinehint nounwind uwtable
define internal i32 @mbedtls_cipher_get_iv_size(ptr noundef %0) #3 {
  %2 = alloca i32, align 4
  %3 = alloca ptr, align 8
  store ptr %0, ptr %3, align 8, !tbaa !29
  %4 = load ptr, ptr %3, align 8, !tbaa !29
  %5 = getelementptr inbounds nuw %struct.mbedtls_cipher_context_t, ptr %4, i32 0, i32 0
  %6 = load ptr, ptr %5, align 8, !tbaa !36
  %7 = icmp eq ptr %6, null
  br i1 %7, label %8, label %9

8:                                                ; preds = %1
  store i32 0, ptr %2, align 4
  br label %28

9:                                                ; preds = %1
  %10 = load ptr, ptr %3, align 8, !tbaa !29
  %11 = getelementptr inbounds nuw %struct.mbedtls_cipher_context_t, ptr %10, i32 0, i32 8
  %12 = load i64, ptr %11, align 8, !tbaa !44
  %13 = icmp ne i64 %12, 0
  br i1 %13, label %14, label %19

14:                                               ; preds = %9
  %15 = load ptr, ptr %3, align 8, !tbaa !29
  %16 = getelementptr inbounds nuw %struct.mbedtls_cipher_context_t, ptr %15, i32 0, i32 8
  %17 = load i64, ptr %16, align 8, !tbaa !44
  %18 = trunc i64 %17 to i32
  store i32 %18, ptr %2, align 4
  br label %28

19:                                               ; preds = %9
  %20 = load ptr, ptr %3, align 8, !tbaa !29
  %21 = getelementptr inbounds nuw %struct.mbedtls_cipher_context_t, ptr %20, i32 0, i32 0
  %22 = load ptr, ptr %21, align 8, !tbaa !36
  %23 = getelementptr inbounds nuw %struct.mbedtls_cipher_info_t, ptr %22, i32 0, i32 1
  %24 = load i32, ptr %23, align 8
  %25 = lshr i32 %24, 5
  %26 = and i32 %25, 7
  %27 = shl i32 %26, 2
  store i32 %27, ptr %2, align 4
  br label %28

28:                                               ; preds = %19, %14, %8
  %29 = load i32, ptr %2, align 4
  ret i32 %29
}

; Function Attrs: nounwind uwtable
define hidden i32 @mbedtls_cipher_finish(ptr noundef %0, ptr noundef %1, ptr noundef %2) #0 {
  %4 = alloca i32, align 4
  %5 = alloca ptr, align 8
  %6 = alloca ptr, align 8
  %7 = alloca ptr, align 8
  %8 = alloca i32, align 4
  %9 = alloca i32, align 4
  store ptr %0, ptr %5, align 8, !tbaa !29
  store ptr %1, ptr %6, align 8, !tbaa !18
  store ptr %2, ptr %7, align 8, !tbaa !46
  %10 = load ptr, ptr %5, align 8, !tbaa !29
  %11 = getelementptr inbounds nuw %struct.mbedtls_cipher_context_t, ptr %10, i32 0, i32 0
  %12 = load ptr, ptr %11, align 8, !tbaa !36
  %13 = icmp eq ptr %12, null
  br i1 %13, label %14, label %15

14:                                               ; preds = %3
  store i32 -24832, ptr %4, align 4
  br label %240

15:                                               ; preds = %3
  %16 = load ptr, ptr %7, align 8, !tbaa !46
  store i64 0, ptr %16, align 8, !tbaa !43
  %17 = load ptr, ptr %5, align 8, !tbaa !29
  %18 = getelementptr inbounds nuw %struct.mbedtls_cipher_context_t, ptr %17, i32 0, i32 0
  %19 = load ptr, ptr %18, align 8, !tbaa !36
  %20 = getelementptr inbounds nuw %struct.mbedtls_cipher_info_t, ptr %19, i32 0, i32 1
  %21 = load i32, ptr %20, align 8
  %22 = lshr i32 %21, 12
  %23 = and i32 %22, 15
  %24 = icmp eq i32 2, %23
  br i1 %24, label %25, label %32

25:                                               ; preds = %15
  %26 = load ptr, ptr %5, align 8, !tbaa !29
  %27 = getelementptr inbounds nuw %struct.mbedtls_cipher_context_t, ptr %26, i32 0, i32 4
  %28 = load ptr, ptr %27, align 8, !tbaa !56
  %29 = icmp eq ptr %28, null
  br i1 %29, label %30, label %31

30:                                               ; preds = %25
  store i32 -24832, ptr %4, align 4
  br label %240

31:                                               ; preds = %25
  br label %32

32:                                               ; preds = %31, %15
  %33 = load ptr, ptr %5, align 8, !tbaa !29
  %34 = getelementptr inbounds nuw %struct.mbedtls_cipher_context_t, ptr %33, i32 0, i32 0
  %35 = load ptr, ptr %34, align 8, !tbaa !36
  %36 = getelementptr inbounds nuw %struct.mbedtls_cipher_info_t, ptr %35, i32 0, i32 1
  %37 = load i32, ptr %36, align 8
  %38 = lshr i32 %37, 12
  %39 = and i32 %38, 15
  %40 = icmp eq i32 3, %39
  br i1 %40, label %95, label %41

41:                                               ; preds = %32
  %42 = load ptr, ptr %5, align 8, !tbaa !29
  %43 = getelementptr inbounds nuw %struct.mbedtls_cipher_context_t, ptr %42, i32 0, i32 0
  %44 = load ptr, ptr %43, align 8, !tbaa !36
  %45 = getelementptr inbounds nuw %struct.mbedtls_cipher_info_t, ptr %44, i32 0, i32 1
  %46 = load i32, ptr %45, align 8
  %47 = lshr i32 %46, 12
  %48 = and i32 %47, 15
  %49 = icmp eq i32 4, %48
  br i1 %49, label %95, label %50

50:                                               ; preds = %41
  %51 = load ptr, ptr %5, align 8, !tbaa !29
  %52 = getelementptr inbounds nuw %struct.mbedtls_cipher_context_t, ptr %51, i32 0, i32 0
  %53 = load ptr, ptr %52, align 8, !tbaa !36
  %54 = getelementptr inbounds nuw %struct.mbedtls_cipher_info_t, ptr %53, i32 0, i32 1
  %55 = load i32, ptr %54, align 8
  %56 = lshr i32 %55, 12
  %57 = and i32 %56, 15
  %58 = icmp eq i32 5, %57
  br i1 %58, label %95, label %59

59:                                               ; preds = %50
  %60 = load ptr, ptr %5, align 8, !tbaa !29
  %61 = getelementptr inbounds nuw %struct.mbedtls_cipher_context_t, ptr %60, i32 0, i32 0
  %62 = load ptr, ptr %61, align 8, !tbaa !36
  %63 = getelementptr inbounds nuw %struct.mbedtls_cipher_info_t, ptr %62, i32 0, i32 1
  %64 = load i32, ptr %63, align 8
  %65 = lshr i32 %64, 12
  %66 = and i32 %65, 15
  %67 = icmp eq i32 6, %66
  br i1 %67, label %95, label %68

68:                                               ; preds = %59
  %69 = load ptr, ptr %5, align 8, !tbaa !29
  %70 = getelementptr inbounds nuw %struct.mbedtls_cipher_context_t, ptr %69, i32 0, i32 0
  %71 = load ptr, ptr %70, align 8, !tbaa !36
  %72 = getelementptr inbounds nuw %struct.mbedtls_cipher_info_t, ptr %71, i32 0, i32 1
  %73 = load i32, ptr %72, align 8
  %74 = lshr i32 %73, 12
  %75 = and i32 %74, 15
  %76 = icmp eq i32 9, %75
  br i1 %76, label %95, label %77

77:                                               ; preds = %68
  %78 = load ptr, ptr %5, align 8, !tbaa !29
  %79 = getelementptr inbounds nuw %struct.mbedtls_cipher_context_t, ptr %78, i32 0, i32 0
  %80 = load ptr, ptr %79, align 8, !tbaa !36
  %81 = getelementptr inbounds nuw %struct.mbedtls_cipher_info_t, ptr %80, i32 0, i32 1
  %82 = load i32, ptr %81, align 8
  %83 = lshr i32 %82, 12
  %84 = and i32 %83, 15
  %85 = icmp eq i32 10, %84
  br i1 %85, label %95, label %86

86:                                               ; preds = %77
  %87 = load ptr, ptr %5, align 8, !tbaa !29
  %88 = getelementptr inbounds nuw %struct.mbedtls_cipher_context_t, ptr %87, i32 0, i32 0
  %89 = load ptr, ptr %88, align 8, !tbaa !36
  %90 = getelementptr inbounds nuw %struct.mbedtls_cipher_info_t, ptr %89, i32 0, i32 1
  %91 = load i32, ptr %90, align 8
  %92 = lshr i32 %91, 12
  %93 = and i32 %92, 15
  %94 = icmp eq i32 7, %93
  br i1 %94, label %95, label %96

95:                                               ; preds = %86, %77, %68, %59, %50, %41, %32
  store i32 0, ptr %4, align 4
  br label %240

96:                                               ; preds = %86
  %97 = load ptr, ptr %5, align 8, !tbaa !29
  %98 = getelementptr inbounds nuw %struct.mbedtls_cipher_context_t, ptr %97, i32 0, i32 0
  %99 = load ptr, ptr %98, align 8, !tbaa !36
  %100 = getelementptr inbounds nuw %struct.mbedtls_cipher_info_t, ptr %99, i32 0, i32 1
  %101 = load i32, ptr %100, align 8
  %102 = lshr i32 %101, 16
  %103 = and i32 %102, 255
  %104 = icmp eq i32 76, %103
  br i1 %104, label %114, label %105

105:                                              ; preds = %96
  %106 = load ptr, ptr %5, align 8, !tbaa !29
  %107 = getelementptr inbounds nuw %struct.mbedtls_cipher_context_t, ptr %106, i32 0, i32 0
  %108 = load ptr, ptr %107, align 8, !tbaa !36
  %109 = getelementptr inbounds nuw %struct.mbedtls_cipher_info_t, ptr %108, i32 0, i32 1
  %110 = load i32, ptr %109, align 8
  %111 = lshr i32 %110, 16
  %112 = and i32 %111, 255
  %113 = icmp eq i32 77, %112
  br i1 %113, label %114, label %115

114:                                              ; preds = %105, %96
  store i32 0, ptr %4, align 4
  br label %240

115:                                              ; preds = %105
  %116 = load ptr, ptr %5, align 8, !tbaa !29
  %117 = getelementptr inbounds nuw %struct.mbedtls_cipher_context_t, ptr %116, i32 0, i32 0
  %118 = load ptr, ptr %117, align 8, !tbaa !36
  %119 = getelementptr inbounds nuw %struct.mbedtls_cipher_info_t, ptr %118, i32 0, i32 1
  %120 = load i32, ptr %119, align 8
  %121 = lshr i32 %120, 12
  %122 = and i32 %121, 15
  %123 = icmp eq i32 1, %122
  br i1 %123, label %124, label %131

124:                                              ; preds = %115
  %125 = load ptr, ptr %5, align 8, !tbaa !29
  %126 = getelementptr inbounds nuw %struct.mbedtls_cipher_context_t, ptr %125, i32 0, i32 6
  %127 = load i64, ptr %126, align 8, !tbaa !45
  %128 = icmp ne i64 %127, 0
  br i1 %128, label %129, label %130

129:                                              ; preds = %124
  store i32 -25216, ptr %4, align 4
  br label %240

130:                                              ; preds = %124
  store i32 0, ptr %4, align 4
  br label %240

131:                                              ; preds = %115
  %132 = load ptr, ptr %5, align 8, !tbaa !29
  %133 = getelementptr inbounds nuw %struct.mbedtls_cipher_context_t, ptr %132, i32 0, i32 0
  %134 = load ptr, ptr %133, align 8, !tbaa !36
  %135 = getelementptr inbounds nuw %struct.mbedtls_cipher_info_t, ptr %134, i32 0, i32 1
  %136 = load i32, ptr %135, align 8
  %137 = lshr i32 %136, 12
  %138 = and i32 %137, 15
  %139 = icmp eq i32 2, %138
  br i1 %139, label %140, label %239

140:                                              ; preds = %131
  call void @llvm.lifetime.start.p0(i64 4, ptr %8) #7
  store i32 0, ptr %8, align 4, !tbaa !3
  %141 = load ptr, ptr %5, align 8, !tbaa !29
  %142 = getelementptr inbounds nuw %struct.mbedtls_cipher_context_t, ptr %141, i32 0, i32 2
  %143 = load i32, ptr %142, align 4, !tbaa !40
  %144 = icmp eq i32 1, %143
  br i1 %144, label %145, label %170

145:                                              ; preds = %140
  %146 = load ptr, ptr %5, align 8, !tbaa !29
  %147 = getelementptr inbounds nuw %struct.mbedtls_cipher_context_t, ptr %146, i32 0, i32 3
  %148 = load ptr, ptr %147, align 8, !tbaa !49
  %149 = icmp eq ptr null, %148
  br i1 %149, label %150, label %157

150:                                              ; preds = %145
  %151 = load ptr, ptr %5, align 8, !tbaa !29
  %152 = getelementptr inbounds nuw %struct.mbedtls_cipher_context_t, ptr %151, i32 0, i32 6
  %153 = load i64, ptr %152, align 8, !tbaa !45
  %154 = icmp ne i64 0, %153
  br i1 %154, label %155, label %156

155:                                              ; preds = %150
  store i32 -25216, ptr %4, align 4
  store i32 1, ptr %9, align 4
  br label %238

156:                                              ; preds = %150
  store i32 0, ptr %4, align 4
  store i32 1, ptr %9, align 4
  br label %238

157:                                              ; preds = %145
  %158 = load ptr, ptr %5, align 8, !tbaa !29
  %159 = getelementptr inbounds nuw %struct.mbedtls_cipher_context_t, ptr %158, i32 0, i32 3
  %160 = load ptr, ptr %159, align 8, !tbaa !49
  %161 = load ptr, ptr %5, align 8, !tbaa !29
  %162 = getelementptr inbounds nuw %struct.mbedtls_cipher_context_t, ptr %161, i32 0, i32 5
  %163 = getelementptr inbounds [16 x i8], ptr %162, i64 0, i64 0
  %164 = load ptr, ptr %5, align 8, !tbaa !29
  %165 = call i32 @mbedtls_cipher_get_iv_size(ptr noundef %164)
  %166 = sext i32 %165 to i64
  %167 = load ptr, ptr %5, align 8, !tbaa !29
  %168 = getelementptr inbounds nuw %struct.mbedtls_cipher_context_t, ptr %167, i32 0, i32 6
  %169 = load i64, ptr %168, align 8, !tbaa !45
  call void %160(ptr noundef %163, i64 noundef %166, i64 noundef %169)
  br label %191

170:                                              ; preds = %140
  %171 = load ptr, ptr %5, align 8, !tbaa !29
  %172 = call i32 @mbedtls_cipher_get_block_size(ptr noundef %171)
  %173 = zext i32 %172 to i64
  %174 = load ptr, ptr %5, align 8, !tbaa !29
  %175 = getelementptr inbounds nuw %struct.mbedtls_cipher_context_t, ptr %174, i32 0, i32 6
  %176 = load i64, ptr %175, align 8, !tbaa !45
  %177 = icmp ne i64 %173, %176
  br i1 %177, label %178, label %190

178:                                              ; preds = %170
  %179 = load ptr, ptr %5, align 8, !tbaa !29
  %180 = getelementptr inbounds nuw %struct.mbedtls_cipher_context_t, ptr %179, i32 0, i32 3
  %181 = load ptr, ptr %180, align 8, !tbaa !49
  %182 = icmp eq ptr null, %181
  br i1 %182, label %183, label %189

183:                                              ; preds = %178
  %184 = load ptr, ptr %5, align 8, !tbaa !29
  %185 = getelementptr inbounds nuw %struct.mbedtls_cipher_context_t, ptr %184, i32 0, i32 6
  %186 = load i64, ptr %185, align 8, !tbaa !45
  %187 = icmp eq i64 0, %186
  br i1 %187, label %188, label %189

188:                                              ; preds = %183
  store i32 0, ptr %4, align 4
  store i32 1, ptr %9, align 4
  br label %238

189:                                              ; preds = %183, %178
  store i32 -25216, ptr %4, align 4
  store i32 1, ptr %9, align 4
  br label %238

190:                                              ; preds = %170
  br label %191

191:                                              ; preds = %190, %157
  %192 = load ptr, ptr %5, align 8, !tbaa !29
  %193 = getelementptr inbounds nuw %struct.mbedtls_cipher_context_t, ptr %192, i32 0, i32 0
  %194 = load ptr, ptr %193, align 8, !tbaa !36
  %195 = call ptr @mbedtls_cipher_get_base(ptr noundef %194)
  %196 = getelementptr inbounds nuw %struct.mbedtls_cipher_base_t, ptr %195, i32 0, i32 2
  %197 = load ptr, ptr %196, align 8, !tbaa !50
  %198 = load ptr, ptr %5, align 8, !tbaa !29
  %199 = getelementptr inbounds nuw %struct.mbedtls_cipher_context_t, ptr %198, i32 0, i32 9
  %200 = load ptr, ptr %199, align 8, !tbaa !35
  %201 = load ptr, ptr %5, align 8, !tbaa !29
  %202 = getelementptr inbounds nuw %struct.mbedtls_cipher_context_t, ptr %201, i32 0, i32 2
  %203 = load i32, ptr %202, align 4, !tbaa !40
  %204 = load ptr, ptr %5, align 8, !tbaa !29
  %205 = call i32 @mbedtls_cipher_get_block_size(ptr noundef %204)
  %206 = zext i32 %205 to i64
  %207 = load ptr, ptr %5, align 8, !tbaa !29
  %208 = getelementptr inbounds nuw %struct.mbedtls_cipher_context_t, ptr %207, i32 0, i32 7
  %209 = getelementptr inbounds [16 x i8], ptr %208, i64 0, i64 0
  %210 = load ptr, ptr %5, align 8, !tbaa !29
  %211 = getelementptr inbounds nuw %struct.mbedtls_cipher_context_t, ptr %210, i32 0, i32 5
  %212 = getelementptr inbounds [16 x i8], ptr %211, i64 0, i64 0
  %213 = load ptr, ptr %6, align 8, !tbaa !18
  %214 = call i32 %197(ptr noundef %200, i32 noundef %203, i64 noundef %206, ptr noundef %209, ptr noundef %212, ptr noundef %213)
  store i32 %214, ptr %8, align 4, !tbaa !3
  %215 = icmp ne i32 0, %214
  br i1 %215, label %216, label %218

216:                                              ; preds = %191
  %217 = load i32, ptr %8, align 4, !tbaa !3
  store i32 %217, ptr %4, align 4
  store i32 1, ptr %9, align 4
  br label %238

218:                                              ; preds = %191
  %219 = load ptr, ptr %5, align 8, !tbaa !29
  %220 = getelementptr inbounds nuw %struct.mbedtls_cipher_context_t, ptr %219, i32 0, i32 2
  %221 = load i32, ptr %220, align 4, !tbaa !40
  %222 = icmp eq i32 0, %221
  br i1 %222, label %223, label %233

223:                                              ; preds = %218
  %224 = load ptr, ptr %5, align 8, !tbaa !29
  %225 = getelementptr inbounds nuw %struct.mbedtls_cipher_context_t, ptr %224, i32 0, i32 4
  %226 = load ptr, ptr %225, align 8, !tbaa !56
  %227 = load ptr, ptr %6, align 8, !tbaa !18
  %228 = load ptr, ptr %5, align 8, !tbaa !29
  %229 = call i32 @mbedtls_cipher_get_block_size(ptr noundef %228)
  %230 = zext i32 %229 to i64
  %231 = load ptr, ptr %7, align 8, !tbaa !46
  %232 = call i32 %226(ptr noundef %227, i64 noundef %230, ptr noundef %231)
  store i32 %232, ptr %4, align 4
  store i32 1, ptr %9, align 4
  br label %238

233:                                              ; preds = %218
  %234 = load ptr, ptr %5, align 8, !tbaa !29
  %235 = call i32 @mbedtls_cipher_get_block_size(ptr noundef %234)
  %236 = zext i32 %235 to i64
  %237 = load ptr, ptr %7, align 8, !tbaa !46
  store i64 %236, ptr %237, align 8, !tbaa !43
  store i32 0, ptr %4, align 4
  store i32 1, ptr %9, align 4
  br label %238

238:                                              ; preds = %233, %223, %216, %189, %188, %156, %155
  call void @llvm.lifetime.end.p0(i64 4, ptr %8) #7
  br label %240

239:                                              ; preds = %131
  store i32 -24704, ptr %4, align 4
  br label %240

240:                                              ; preds = %239, %238, %130, %129, %114, %95, %30, %14
  %241 = load i32, ptr %4, align 4
  ret i32 %241
}