; Function Attrs: nounwind uwtable
define hidden i32 @mbedtls_cipher_finish(ptr noundef %0, ptr noundef %1, ptr noundef %2) local_unnamed_addr #8 {
  %4 = load ptr, ptr %0, align 8, !tbaa !29
  %5 = icmp eq ptr %4, null
  br i1 %5, label %switch.lookup, label %6

6:                                                ; preds = %3
  store i64 0, ptr %2, align 8, !tbaa !37
  %7 = getelementptr inbounds nuw i8, ptr %4, i64 8
  %8 = load i32, ptr %7, align 8
  %9 = and i32 %8, 61440
  %10 = icmp eq i32 %9, 8192
  br i1 %10, label %11, label %15

11:                                               ; preds = %6
  %12 = getelementptr inbounds nuw i8, ptr %0, i64 24
  %13 = load ptr, ptr %12, align 8, !tbaa !46
  %14 = icmp eq ptr %13, null
  br i1 %14, label %switch.lookup, label %15

15:                                               ; preds = %11, %6
  %16 = lshr i32 %8, 12
  %17 = and i32 %16, 15
  %switch.tableidx = add nsw i32 %17, -3
  %18 = icmp ult i32 %switch.tableidx, 8
  br i1 %18, label %switch.hole_check, label %19

19:                                               ; preds = %15
  %.old = and i32 %8, 16646144
  %switch.old = icmp eq i32 %.old, 4980736
  br i1 %switch.old, label %switch.lookup, label %20

20:                                               ; preds = %switch.hole_check, %19
  switch i32 %17, label %switch.lookup [
    i32 1, label %21
    i32 2, label %24
  ]

21:                                               ; preds = %20
  %22 = getelementptr inbounds nuw i8, ptr %0, i64 48
  %23 = load i64, ptr %22, align 8, !tbaa !36
  %.not49 = icmp eq i64 %23, 0
  %. = select i1 %.not49, i32 0, i32 -25216
  br label %switch.lookup

24:                                               ; preds = %20
  %25 = getelementptr inbounds nuw i8, ptr %0, i64 12
  %26 = load i32, ptr %25, align 4, !tbaa !33
  %27 = icmp eq i32 %26, 1
  br i1 %27, label %28, label %mbedtls_cipher_get_block_size.exit

28:                                               ; preds = %24
  %29 = getelementptr inbounds nuw i8, ptr %0, i64 16
  %30 = load ptr, ptr %29, align 8, !tbaa !39
  %31 = icmp eq ptr %30, null
  br i1 %31, label %32, label %mbedtls_cipher_get_iv_size.exit

32:                                               ; preds = %28
  %33 = getelementptr inbounds nuw i8, ptr %0, i64 48
  %34 = load i64, ptr %33, align 8, !tbaa !36
  %.not48 = icmp eq i64 %34, 0
  %.50 = select i1 %.not48, i32 0, i32 -25216
  br label %switch.lookup

mbedtls_cipher_get_iv_size.exit:                  ; preds = %28
  %35 = getelementptr inbounds nuw i8, ptr %0, i64 32
  %36 = getelementptr inbounds nuw i8, ptr %0, i64 72
  %37 = load i64, ptr %36, align 8, !tbaa !35
  %.not.i = icmp eq i64 %37, 0
  %38 = trunc i64 %37 to i32
  %39 = lshr i32 %8, 3
  %40 = and i32 %39, 28
  %.0.i = select i1 %.not.i, i32 %40, i32 %38
  %41 = sext i32 %.0.i to i64
  %42 = getelementptr inbounds nuw i8, ptr %0, i64 48
  %43 = load i64, ptr %42, align 8, !tbaa !36
  tail call void %30(ptr noundef nonnull %35, i64 noundef %41, i64 noundef %43) #15
  %.pre = load ptr, ptr %0, align 8, !tbaa !29
  %.phi.trans.insert = getelementptr i8, ptr %.pre, i64 8
  %.val.pre = load i32, ptr %.phi.trans.insert, align 8
  %.pre63 = load i32, ptr %25, align 4, !tbaa !33
  %.pre64 = and i32 %.val.pre, 31
  %.pre65 = zext nneg i32 %.pre64 to i64
  br label %mbedtls_cipher_get_block_size.exit57

mbedtls_cipher_get_block_size.exit:               ; preds = %24
  %44 = and i32 %8, 31
  %45 = zext nneg i32 %44 to i64
  %46 = getelementptr inbounds nuw i8, ptr %0, i64 48
  %47 = load i64, ptr %46, align 8, !tbaa !36
  %.not = icmp eq i64 %47, %45
  br i1 %.not, label %mbedtls_cipher_get_block_size.exit57, label %48

48:                                               ; preds = %mbedtls_cipher_get_block_size.exit
  %49 = getelementptr inbounds nuw i8, ptr %0, i64 16
  %50 = load ptr, ptr %49, align 8, !tbaa !39
  %51 = icmp eq ptr %50, null
  %52 = icmp eq i64 %47, 0
  %or.cond = and i1 %52, %51
  %spec.select = select i1 %or.cond, i32 0, i32 -25216
  br label %switch.lookup

mbedtls_cipher_get_block_size.exit57:             ; preds = %mbedtls_cipher_get_block_size.exit, %mbedtls_cipher_get_iv_size.exit
  %.pre-phi66 = phi i64 [ %45, %mbedtls_cipher_get_block_size.exit ], [ %.pre65, %mbedtls_cipher_get_iv_size.exit ]
  %53 = phi i32 [ %26, %mbedtls_cipher_get_block_size.exit ], [ %.pre63, %mbedtls_cipher_get_iv_size.exit ]
  %.val = phi i32 [ %8, %mbedtls_cipher_get_block_size.exit ], [ %.val.pre, %mbedtls_cipher_get_iv_size.exit ]
  %54 = lshr i32 %.val, 26
  %55 = and i32 %54, 31
  %56 = zext nneg i32 %55 to i64
  %57 = getelementptr inbounds nuw [0 x ptr], ptr @mbedtls_cipher_base_lookup_table, i64 0, i64 %56
  %58 = load ptr, ptr %57, align 8, !tbaa !19
  %59 = getelementptr inbounds nuw i8, ptr %58, i64 16
  %60 = load ptr, ptr %59, align 8, !tbaa !40
  %61 = getelementptr inbounds nuw i8, ptr %0, i64 80
  %62 = load ptr, ptr %61, align 8, !tbaa !28
  %63 = getelementptr inbounds nuw i8, ptr %0, i64 56
  %64 = getelementptr inbounds nuw i8, ptr %0, i64 32
  %65 = tail call i32 %60(ptr noundef %62, i32 noundef %53, i64 noundef %.pre-phi66, ptr noundef nonnull %63, ptr noundef nonnull %64, ptr noundef %1) #15
  %.not47 = icmp eq i32 %65, 0
  br i1 %.not47, label %66, label %switch.lookup

66:                                               ; preds = %mbedtls_cipher_get_block_size.exit57
  %67 = load i32, ptr %25, align 4, !tbaa !33
  %68 = icmp eq i32 %67, 0
  br i1 %68, label %69, label %79

69:                                               ; preds = %66
  %70 = getelementptr inbounds nuw i8, ptr %0, i64 24
  %71 = load ptr, ptr %70, align 8, !tbaa !46
  %.val52 = load ptr, ptr %0, align 8, !tbaa !29
  %72 = icmp eq ptr %.val52, null
  br i1 %72, label %mbedtls_cipher_get_block_size.exit59, label %73

73:                                               ; preds = %69
  %74 = getelementptr inbounds nuw i8, ptr %.val52, i64 8
  %75 = load i32, ptr %74, align 8
  %76 = and i32 %75, 31
  %77 = zext nneg i32 %76 to i64
  br label %mbedtls_cipher_get_block_size.exit59

mbedtls_cipher_get_block_size.exit59:             ; preds = %69, %73
  %.0.i58 = phi i64 [ %77, %73 ], [ 0, %69 ]
  %78 = tail call i32 %71(ptr noundef %1, i64 noundef %.0.i58, ptr noundef nonnull %2) #15
  br label %switch.lookup

79:                                               ; preds = %66
  %.val51 = load ptr, ptr %0, align 8, !tbaa !29
  %80 = icmp eq ptr %.val51, null
  br i1 %80, label %mbedtls_cipher_get_block_size.exit61, label %81

81:                                               ; preds = %79
  %82 = getelementptr inbounds nuw i8, ptr %.val51, i64 8
  %83 = load i32, ptr %82, align 8
  %84 = and i32 %83, 31
  %85 = zext nneg i32 %84 to i64
  br label %mbedtls_cipher_get_block_size.exit61

mbedtls_cipher_get_block_size.exit61:             ; preds = %79, %81
  %.0.i60 = phi i64 [ %85, %81 ], [ 0, %79 ]
  store i64 %.0.i60, ptr %2, align 8, !tbaa !37
  br label %switch.lookup

switch.hole_check:                                ; preds = %15
  %switch.maskindex = trunc nuw nsw i32 %switch.tableidx to i8
  %switch.shifted = lshr i8 -33, %switch.maskindex
  %switch.lobit = trunc i8 %switch.shifted to i1
  %86 = and i32 %8, 16646144
  %switch = icmp eq i32 %86, 4980736
  %or.cond67 = or i1 %switch, %switch.lobit
  br i1 %or.cond67, label %switch.lookup, label %20

switch.lookup:                                    ; preds = %switch.hole_check, %48, %19, %20, %mbedtls_cipher_get_block_size.exit59, %mbedtls_cipher_get_block_size.exit61, %32, %mbedtls_cipher_get_block_size.exit57, %21, %11, %3
  %.0 = phi i32 [ -24832, %3 ], [ -24832, %11 ], [ 0, %19 ], [ %., %21 ], [ %78, %mbedtls_cipher_get_block_size.exit59 ], [ 0, %mbedtls_cipher_get_block_size.exit61 ], [ %.50, %32 ], [ %65, %mbedtls_cipher_get_block_size.exit57 ], [ -24704, %20 ], [ %spec.select, %48 ], [ 0, %switch.hole_check ]
  ret i32 %.0
}